target datalayout = "e-m:e-p270:32:32-p271:32:32-p272:64:64-i64:64-i128:128-f80:128-n8:16:32:64-S128"
target triple = "x86_64-pc-linux-gnu"

%"class.OpenImageIO::v3_1_0::(anonymous namespace)::SampleComparator" = type <{ ptr, i32, i32, i32, [4 x i8] }>
%"struct.__gnu_cxx::__ops::_Iter_comp_iter" = type { %"class.OpenImageIO::v3_1_0::(anonymous namespace)::SampleComparator" }

; Function Attrs: mustprogress nounwind uwtable
define linkonce_odr noundef ptr @_ZNSt11__copy_moveILb1ELb1ESt26random_access_iterator_tagE8__copy_mIiEEPT_PKS3_S6_S4_(ptr noundef %0, ptr noundef %1, ptr noundef %2) #5 comdat align 2 {
  %4 = alloca ptr, align 8
  %5 = alloca ptr, align 8
  %6 = alloca ptr, align 8
  %7 = alloca i64, align 8
  store ptr %0, ptr %4, align 8, !tbaa !128
  store ptr %1, ptr %5, align 8, !tbaa !128
  store ptr %2, ptr %6, align 8, !tbaa !128
  call void @llvm.lifetime.start.p0(i64 8, ptr %7) #3
  %8 = load ptr, ptr %5, align 8, !tbaa !128
  %9 = load ptr, ptr %4, align 8, !tbaa !128
  %10 = ptrtoint ptr %8 to i64
  %11 = ptrtoint ptr %9 to i64
  %12 = sub i64 %10, %11
  %13 = sdiv exact i64 %12, 4
  store i64 %13, ptr %7, align 8, !tbaa !64
  %14 = load i64, ptr %7, align 8, !tbaa !64
  %15 = icmp ne i64 %14, 0
  br i1 %15, label %16, label %21

16:                                               ; preds = %3
  %17 = load ptr, ptr %6, align 8, !tbaa !128
  %18 = load ptr, ptr %4, align 8, !tbaa !128
  %19 = load i64, ptr %7, align 8, !tbaa !64
  %20 = mul i64 4, %19
  call void @llvm.memmove.p0.p0.i64(ptr align 4 %17, ptr align 4 %18, i64 %20, i1 false)
  br label %21

21:                                               ; preds = %16, %3
  %22 = load ptr, ptr %6, align 8, !tbaa !128
  %23 = load i64, ptr %7, align 8, !tbaa !64
  %24 = getelementptr inbounds i32, ptr %22, i64 %23
  call void @llvm.lifetime.end.p0(i64 8, ptr %7) #3
  ret ptr %24
}

; Function Attrs: inlinehint mustprogress uwtable
define linkonce_odr noundef ptr @_ZSt14__copy_move_a2ILb1EPiS0_ET1_T0_S2_S1_(ptr noundef %0, ptr noundef %1, ptr noundef %2) #9 comdat {
  %4 = alloca ptr, align 8
  %5 = alloca ptr, align 8
  %6 = alloca ptr, align 8
  store ptr %0, ptr %4, align 8, !tbaa !128
  store ptr %1, ptr %5, align 8, !tbaa !128
  store ptr %2, ptr %6, align 8, !tbaa !128
  %7 = load ptr, ptr %4, align 8, !tbaa !128
  %8 = load ptr, ptr %5, align 8, !tbaa !128
  %9 = load ptr, ptr %6, align 8, !tbaa !128
  %10 = call noundef ptr @_ZNSt11__copy_moveILb1ELb1ESt26random_access_iterator_tagE8__copy_mIiEEPT_PKS3_S6_S4_(ptr noundef %7, ptr noundef %8, ptr noundef %9)
  ret ptr %10
}

; Function Attrs: inlinehint mustprogress nounwind uwtable
define linkonce_odr noundef ptr @_ZSt12__niter_wrapIPiET_RKS1_S1_(ptr noundef nonnull align 8 dereferenceable(8) %0, ptr noundef %1) #7 comdat {
  %3 = alloca ptr, align 8
  %4 = alloca ptr, align 8
  store ptr %0, ptr %3, align 8, !tbaa !539
  store ptr %1, ptr %4, align 8, !tbaa !128
  %5 = load ptr, ptr %4, align 8, !tbaa !128
  ret ptr %5
}

; Function Attrs: inlinehint mustprogress uwtable
define linkonce_odr noundef ptr @_ZSt14__copy_move_a1ILb1EPiS0_ET1_T0_S2_S1_(ptr noundef %0, ptr noundef %1, ptr noundef %2) #9 comdat {
  %4 = alloca ptr, align 8
  %5 = alloca ptr, align 8
  %6 = alloca ptr, align 8
  store ptr %0, ptr %4, align 8, !tbaa !128
  store ptr %1, ptr %5, align 8, !tbaa !128
  store ptr %2, ptr %6, align 8, !tbaa !128
  %7 = load ptr, ptr %4, align 8, !tbaa !128
  %8 = load ptr, ptr %5, align 8, !tbaa !128
  %9 = load ptr, ptr %6, align 8, !tbaa !128
  %10 = call noundef ptr @_ZSt14__copy_move_a2ILb1EPiS0_ET1_T0_S2_S1_(ptr noundef %7, ptr noundef %8, ptr noundef %9)
  ret ptr %10
}

; Function Attrs: inlinehint mustprogress nounwind uwtable
define linkonce_odr noundef ptr @_ZSt12__niter_baseIPiET_S1_(ptr noundef %0) #7 comdat {
  %2 = alloca ptr, align 8
  store ptr %0, ptr %2, align 8, !tbaa !128
  %3 = load ptr, ptr %2, align 8, !tbaa !128
  ret ptr %3
}

; Function Attrs: inlinehint mustprogress uwtable
define linkonce_odr noundef ptr @_ZSt13__copy_move_aILb1EPiS0_ET1_T0_S2_S1_(ptr noundef %0, ptr noundef %1, ptr noundef %2) #9 comdat {
  %4 = alloca ptr, align 8
  %5 = alloca ptr, align 8
  %6 = alloca ptr, align 8
  store ptr %0, ptr %4, align 8, !tbaa !128
  store ptr %1, ptr %5, align 8, !tbaa !128
  store ptr %2, ptr %6, align 8, !tbaa !128
  %7 = load ptr, ptr %4, align 8, !tbaa !128
  %8 = call noundef ptr @_ZSt12__niter_baseIPiET_S1_(ptr noundef %7) #3
  %9 = load ptr, ptr %5, align 8, !tbaa !128
  %10 = call noundef ptr @_ZSt12__niter_baseIPiET_S1_(ptr noundef %9) #3
  %11 = load ptr, ptr %6, align 8, !tbaa !128
  %12 = call noundef ptr @_ZSt12__niter_baseIPiET_S1_(ptr noundef %11) #3
  %13 = call noundef ptr @_ZSt14__copy_move_a1ILb1EPiS0_ET1_T0_S2_S1_(ptr noundef %8, ptr noundef %10, ptr noundef %12)
  %14 = call noundef ptr @_ZSt12__niter_wrapIPiET_RKS1_S1_(ptr noundef nonnull align 8 dereferenceable(8) %6, ptr noundef %13)
  ret ptr %14
}

; Function Attrs: inlinehint mustprogress nounwind uwtable
define linkonce_odr noundef ptr @_ZSt12__miter_baseIPiET_S1_(ptr noundef %0) #7 comdat {
  %2 = alloca ptr, align 8
  store ptr %0, ptr %2, align 8, !tbaa !128
  %3 = load ptr, ptr %2, align 8, !tbaa !128
  ret ptr %3
}

; Function Attrs: mustprogress uwtable
define internal noundef zeroext i1 @_ZNK11OpenImageIO6v3_1_012_GLOBAL__N_116SampleComparatorclEii(ptr noundef nonnull align 8 dereferenceable(20) %0, i32 noundef %1, i32 noundef %2) #6 align 2 {
  %4 = alloca i1, align 1
  %5 = alloca ptr, align 8
  %6 = alloca i32, align 4
  %7 = alloca i32, align 4
  %8 = alloca float, align 4
  %9 = alloca float, align 4
  %10 = alloca i32, align 4
  %11 = alloca float, align 4
  %12 = alloca float, align 4
  store ptr %0, ptr %5, align 8, !tbaa !431
  store i32 %1, ptr %6, align 4, !tbaa !71
  store i32 %2, ptr %7, align 4, !tbaa !71
  %13 = load ptr, ptr %5, align 8
  call void @llvm.lifetime.start.p0(i64 4, ptr %8) #3
  %14 = getelementptr inbounds nuw %"class.OpenImageIO::v3_1_0::(anonymous namespace)::SampleComparator", ptr %13, i32 0, i32 0
  %15 = load ptr, ptr %14, align 8, !tbaa !706
  %16 = getelementptr inbounds nuw %"class.OpenImageIO::v3_1_0::(anonymous namespace)::SampleComparator", ptr %13, i32 0, i32 1
  %17 = load i32, ptr %16, align 8, !tbaa !433
  %18 = sext i32 %17 to i64
  %19 = getelementptr inbounds nuw %"class.OpenImageIO::v3_1_0::(anonymous namespace)::SampleComparator", ptr %13, i32 0, i32 2
  %20 = load i32, ptr %19, align 4, !tbaa !435
  %21 = load i32, ptr %6, align 4, !tbaa !71
  %22 = call noundef float @_ZNK11OpenImageIO6v3_1_08DeepData10deep_valueElii(ptr noundef nonnull align 8 dereferenceable(20) %15, i64 noundef %18, i32 noundef %20, i32 noundef %21)
  store float %22, ptr %8, align 4, !tbaa !165
  call void @llvm.lifetime.start.p0(i64 4, ptr %9) #3
  %23 = getelementptr inbounds nuw %"class.OpenImageIO::v3_1_0::(anonymous namespace)::SampleComparator", ptr %13, i32 0, i32 0
  %24 = load ptr, ptr %23, align 8, !tbaa !706
  %25 = getelementptr inbounds nuw %"class.OpenImageIO::v3_1_0::(anonymous namespace)::SampleComparator", ptr %13, i32 0, i32 1
  %26 = load i32, ptr %25, align 8, !tbaa !433
  %27 = sext i32 %26 to i64
  %28 = getelementptr inbounds nuw %"class.OpenImageIO::v3_1_0::(anonymous namespace)::SampleComparator", ptr %13, i32 0, i32 2
  %29 = load i32, ptr %28, align 4, !tbaa !435
  %30 = load i32, ptr %7, align 4, !tbaa !71
  %31 = call noundef float @_ZNK11OpenImageIO6v3_1_08DeepData10deep_valueElii(ptr noundef nonnull align 8 dereferenceable(20) %24, i64 noundef %27, i32 noundef %29, i32 noundef %30)
  store float %31, ptr %9, align 4, !tbaa !165
  %32 = load float, ptr %8, align 4, !tbaa !165
  %33 = load float, ptr %9, align 4, !tbaa !165
  %34 = fcmp olt float %32, %33
  br i1 %34, label %35, label %36

35:                                               ; preds = %3
  store i1 true, ptr %4, align 1
  store i32 1, ptr %10, align 4
  br label %63

36:                                               ; preds = %3
  %37 = load float, ptr %8, align 4, !tbaa !165
  %38 = load float, ptr %9, align 4, !tbaa !165
  %39 = fcmp ogt float %37, %38
  br i1 %39, label %40, label %41

40:                                               ; preds = %36
  store i1 false, ptr %4, align 1
  store i32 1, ptr %10, align 4
  br label %63

41:                                               ; preds = %36
  call void @llvm.lifetime.start.p0(i64 4, ptr %11) #3
  %42 = getelementptr inbounds nuw %"class.OpenImageIO::v3_1_0::(anonymous namespace)::SampleComparator", ptr %13, i32 0, i32 0
  %43 = load ptr, ptr %42, align 8, !tbaa !706
  %44 = getelementptr inbounds nuw %"class.OpenImageIO::v3_1_0::(anonymous namespace)::SampleComparator", ptr %13, i32 0, i32 1
  %45 = load i32, ptr %44, align 8, !tbaa !433
  %46 = sext i32 %45 to i64
  %47 = getelementptr inbounds nuw %"class.OpenImageIO::v3_1_0::(anonymous namespace)::SampleComparator", ptr %13, i32 0, i32 3
  %48 = load i32, ptr %47, align 8, !tbaa !436
  %49 = load i32, ptr %6, align 4, !tbaa !71
  %50 = call noundef float @_ZNK11OpenImageIO6v3_1_08DeepData10deep_valueElii(ptr noundef nonnull align 8 dereferenceable(20) %43, i64 noundef %46, i32 noundef %48, i32 noundef %49)
  store float %50, ptr %11, align 4, !tbaa !165
  call void @llvm.lifetime.start.p0(i64 4, ptr %12) #3
  %51 = getelementptr inbounds nuw %"class.OpenImageIO::v3_1_0::(anonymous namespace)::SampleComparator", ptr %13, i32 0, i32 0
  %52 = load ptr, ptr %51, align 8, !tbaa !706
  %53 = getelementptr inbounds nuw %"class.OpenImageIO::v3_1_0::(anonymous namespace)::SampleComparator", ptr %13, i32 0, i32 1
  %54 = load i32, ptr %53, align 8, !tbaa !433
  %55 = sext i32 %54 to i64
  %56 = getelementptr inbounds nuw %"class.OpenImageIO::v3_1_0::(anonymous namespace)::SampleComparator", ptr %13, i32 0, i32 3
  %57 = load i32, ptr %56, align 8, !tbaa !436
  %58 = load i32, ptr %7, align 4, !tbaa !71
  %59 = call noundef float @_ZNK11OpenImageIO6v3_1_08DeepData10deep_valueElii(ptr noundef nonnull align 8 dereferenceable(20) %52, i64 noundef %55, i32 noundef %57, i32 noundef %58)
  store float %59, ptr %12, align 4, !tbaa !165
  %60 = load float, ptr %11, align 4, !tbaa !165
  %61 = load float, ptr %12, align 4, !tbaa !165
  %62 = fcmp olt float %60, %61
  store i1 %62, ptr %4, align 1
  store i32 1, ptr %10, align 4
  call void @llvm.lifetime.end.p0(i64 4, ptr %12) #3
  call void @llvm.lifetime.end.p0(i64 4, ptr %11) #3
  br label %63

63:                                               ; preds = %41, %40, %35
  call void @llvm.lifetime.end.p0(i64 4, ptr %9) #3
  call void @llvm.lifetime.end.p0(i64 4, ptr %8) #3
  %64 = load i1, ptr %4, align 1
  ret i1 %64
}

; Function Attrs: inlinehint mustprogress uwtable
define linkonce_odr noundef ptr @_ZSt4moveIPiS0_ET0_T_S2_S1_(ptr noundef %0, ptr noundef %1, ptr noundef %2) #9 comdat {
  %4 = alloca ptr, align 8
  %5 = alloca ptr, align 8
  %6 = alloca ptr, align 8
  store ptr %0, ptr %4, align 8, !tbaa !128
  store ptr %1, ptr %5, align 8, !tbaa !128
  store ptr %2, ptr %6, align 8, !tbaa !128
  %7 = load ptr, ptr %4, align 8, !tbaa !128
  %8 = call noundef ptr @_ZSt12__miter_baseIPiET_S1_(ptr noundef %7)
  %9 = load ptr, ptr %5, align 8, !tbaa !128
  %10 = call noundef ptr @_ZSt12__miter_baseIPiET_S1_(ptr noundef %9)
  %11 = load ptr, ptr %6, align 8, !tbaa !128
  %12 = call noundef ptr @_ZSt13__copy_move_aILb1EPiS0_ET1_T0_S2_S1_(ptr noundef %8, ptr noundef %10, ptr noundef %11)
  ret ptr %12
}

; Function Attrs: mustprogress uwtable
define internal noundef zeroext i1 @_ZN9__gnu_cxx5__ops15_Iter_comp_iterIN11OpenImageIO6v3_1_012_GLOBAL__N_116SampleComparatorEEclIPiS8_EEbT_T0_(ptr noundef nonnull align 8 dereferenceable(24) %0, ptr noundef %1, ptr noundef %2) #6 align 2 {
  %4 = alloca ptr, align 8
  %5 = alloca ptr, align 8
  %6 = alloca ptr, align 8
  store ptr %0, ptr %4, align 8, !tbaa !703
  store ptr %1, ptr %5, align 8, !tbaa !128
  store ptr %2, ptr %6, align 8, !tbaa !128
  %7 = load ptr, ptr %4, align 8
  %8 = getelementptr inbounds nuw %"struct.__gnu_cxx::__ops::_Iter_comp_iter", ptr %7, i32 0, i32 0
  %9 = load ptr, ptr %5, align 8, !tbaa !128
  %10 = load i32, ptr %9, align 4, !tbaa !71
  %11 = load ptr, ptr %6, align 8, !tbaa !128
  %12 = load i32, ptr %11, align 4, !tbaa !71
  %13 = call noundef zeroext i1 @_ZNK11OpenImageIO6v3_1_012_GLOBAL__N_116SampleComparatorclEii(ptr noundef nonnull align 8 dereferenceable(20) %8, i32 noundef %10, i32 noundef %12)
  ret i1 %13
}

; Function Attrs: mustprogress uwtable
define internal noundef ptr @_ZSt12__move_mergeIPiS0_N9__gnu_cxx5__ops15_Iter_comp_iterIN11OpenImageIO6v3_1_012_GLOBAL__N_116SampleComparatorEEEET0_T_SA_SA_SA_S9_T1_(ptr noundef %0, ptr noundef %1, ptr noundef %2, ptr noundef %3, ptr noundef %4, ptr noundef byval(%"struct.__gnu_cxx::__ops::_Iter_comp_iter") align 8 %5) #6 {
  %7 = alloca ptr, align 8
  %8 = alloca ptr, align 8
  %9 = alloca ptr, align 8
  %10 = alloca ptr, align 8
  %11 = alloca ptr, align 8
  store ptr %0, ptr %7, align 8, !tbaa !128
  store ptr %1, ptr %8, align 8, !tbaa !128
  store ptr %2, ptr %9, align 8, !tbaa !128
  store ptr %3, ptr %10, align 8, !tbaa !128
  store ptr %4, ptr %11, align 8, !tbaa !128
  br label %12

12:                                               ; preds = %38, %6
  %13 = load ptr, ptr %7, align 8, !tbaa !128
  %14 = load ptr, ptr %8, align 8, !tbaa !128
  %15 = icmp ne ptr %13, %14
  br i1 %15, label %16, label %20

16:                                               ; preds = %12
  %17 = load ptr, ptr %9, align 8, !tbaa !128
  %18 = load ptr, ptr %10, align 8, !tbaa !128
  %19 = icmp ne ptr %17, %18
  br label %20

20:                                               ; preds = %16, %12
  %21 = phi i1 [ false, %12 ], [ %19, %16 ]
  br i1 %21, label %22, label %41

22:                                               ; preds = %20
  %23 = load ptr, ptr %9, align 8, !tbaa !128
  %24 = load ptr, ptr %7, align 8, !tbaa !128
  %25 = call noundef zeroext i1 @_ZN9__gnu_cxx5__ops15_Iter_comp_iterIN11OpenImageIO6v3_1_012_GLOBAL__N_116SampleComparatorEEclIPiS8_EEbT_T0_(ptr noundef nonnull align 8 dereferenceable(24) %5, ptr noundef %23, ptr noundef %24)
  br i1 %25, label %26, label %32

26:                                               ; preds = %22
  %27 = load ptr, ptr %9, align 8, !tbaa !128
  %28 = load i32, ptr %27, align 4, !tbaa !71
  %29 = load ptr, ptr %11, align 8, !tbaa !128
  store i32 %28, ptr %29, align 4, !tbaa !71
  %30 = load ptr, ptr %9, align 8, !tbaa !128
  %31 = getelementptr inbounds nuw i32, ptr %30, i32 1
  store ptr %31, ptr %9, align 8, !tbaa !128
  br label %38

32:                                               ; preds = %22
  %33 = load ptr, ptr %7, align 8, !tbaa !128
  %34 = load i32, ptr %33, align 4, !tbaa !71
  %35 = load ptr, ptr %11, align 8, !tbaa !128
  store i32 %34, ptr %35, align 4, !tbaa !71
  %36 = load ptr, ptr %7, align 8, !tbaa !128
  %37 = getelementptr inbounds nuw i32, ptr %36, i32 1
  store ptr %37, ptr %7, align 8, !tbaa !128
  br label %38

38:                                               ; preds = %32, %26
  %39 = load ptr, ptr %11, align 8, !tbaa !128
  %40 = getelementptr inbounds nuw i32, ptr %39, i32 1
  store ptr %40, ptr %11, align 8, !tbaa !128
  br label %12, !llvm.loop !720

41:                                               ; preds = %20
  %42 = load ptr, ptr %9, align 8, !tbaa !128
  %43 = load ptr, ptr %10, align 8, !tbaa !128
  %44 = load ptr, ptr %7, align 8, !tbaa !128
  %45 = load ptr, ptr %8, align 8, !tbaa !128
  %46 = load ptr, ptr %11, align 8, !tbaa !128
  %47 = call noundef ptr @_ZSt4moveIPiS0_ET0_T_S2_S1_(ptr noundef %44, ptr noundef %45, ptr noundef %46)
  %48 = call noundef ptr @_ZSt4moveIPiS0_ET0_T_S2_S1_(ptr noundef %42, ptr noundef %43, ptr noundef %47)
  ret ptr %48
}