; Function Attrs: mustprogress nofree nounwind uwtable
define internal fastcc void @_ZSt12__move_mergeIPiS0_N9__gnu_cxx5__ops15_Iter_comp_iterIN11OpenImageIO6v3_1_012_GLOBAL__N_116SampleComparatorEEEET0_T_SA_SA_SA_S9_T1_(ptr noundef %0, ptr noundef %1, ptr noundef %2, ptr noundef %3, ptr noundef writeonly %4, ptr noundef readonly byval(%"struct.__gnu_cxx::__ops::_Iter_comp_iter") align 8 captures(none) %5) unnamed_addr #17 {
  %7 = icmp ne ptr %0, %1
  %8 = icmp ne ptr %2, %3
  %9 = and i1 %7, %8
  br i1 %9, label %.lr.ph, label %._crit_edge

.lr.ph:                                           ; preds = %6
  %10 = load ptr, ptr %5, align 8, !tbaa !191
  %11 = getelementptr inbounds nuw i8, ptr %5, i64 8
  %12 = load i32, ptr %11, align 8, !tbaa !194
  %13 = sext i32 %12 to i64
  %14 = getelementptr inbounds nuw i8, ptr %5, i64 12
  %15 = load i32, ptr %14, align 4, !tbaa !195
  %16 = getelementptr inbounds nuw i8, ptr %5, i64 16
  %17 = load i32, ptr %16, align 8
  br label %18

18:                                               ; preds = %.lr.ph, %31
  %.028 = phi ptr [ %4, %.lr.ph ], [ %32, %31 ]
  %.01827 = phi ptr [ %0, %.lr.ph ], [ %.1, %31 ]
  %.01926 = phi ptr [ %2, %.lr.ph ], [ %.120, %31 ]
  %.019.val = load i32, ptr %.01926, align 4, !tbaa !85
  %.018.val = load i32, ptr %.01827, align 4, !tbaa !85
  %19 = tail call noundef float @_ZNK11OpenImageIO6v3_1_08DeepData10deep_valueElii(ptr noundef nonnull align 8 dereferenceable(20) %10, i64 noundef %13, i32 noundef %15, i32 noundef %.019.val)
  %20 = tail call noundef float @_ZNK11OpenImageIO6v3_1_08DeepData10deep_valueElii(ptr noundef nonnull align 8 dereferenceable(20) %10, i64 noundef %13, i32 noundef %15, i32 noundef %.018.val)
  %21 = fcmp olt float %19, %20
  br i1 %21, label %_ZN9__gnu_cxx5__ops15_Iter_comp_iterIN11OpenImageIO6v3_1_012_GLOBAL__N_116SampleComparatorEEclIPiS8_EEbT_T0_.exit.thread, label %22

22:                                               ; preds = %18
  %23 = fcmp ogt float %19, %20
  br i1 %23, label %_ZN9__gnu_cxx5__ops15_Iter_comp_iterIN11OpenImageIO6v3_1_012_GLOBAL__N_116SampleComparatorEEclIPiS8_EEbT_T0_.exit.thread24, label %_ZN9__gnu_cxx5__ops15_Iter_comp_iterIN11OpenImageIO6v3_1_012_GLOBAL__N_116SampleComparatorEEclIPiS8_EEbT_T0_.exit

_ZN9__gnu_cxx5__ops15_Iter_comp_iterIN11OpenImageIO6v3_1_012_GLOBAL__N_116SampleComparatorEEclIPiS8_EEbT_T0_.exit: ; preds = %22
  %24 = tail call noundef float @_ZNK11OpenImageIO6v3_1_08DeepData10deep_valueElii(ptr noundef nonnull align 8 dereferenceable(20) %10, i64 noundef %13, i32 noundef %17, i32 noundef %.019.val)
  %25 = tail call noundef float @_ZNK11OpenImageIO6v3_1_08DeepData10deep_valueElii(ptr noundef nonnull align 8 dereferenceable(20) %10, i64 noundef %13, i32 noundef %17, i32 noundef %.018.val)
  %26 = fcmp olt float %24, %25
  br i1 %26, label %_ZN9__gnu_cxx5__ops15_Iter_comp_iterIN11OpenImageIO6v3_1_012_GLOBAL__N_116SampleComparatorEEclIPiS8_EEbT_T0_.exit.thread, label %_ZN9__gnu_cxx5__ops15_Iter_comp_iterIN11OpenImageIO6v3_1_012_GLOBAL__N_116SampleComparatorEEclIPiS8_EEbT_T0_.exit.thread24

_ZN9__gnu_cxx5__ops15_Iter_comp_iterIN11OpenImageIO6v3_1_012_GLOBAL__N_116SampleComparatorEEclIPiS8_EEbT_T0_.exit.thread: ; preds = %18, %_ZN9__gnu_cxx5__ops15_Iter_comp_iterIN11OpenImageIO6v3_1_012_GLOBAL__N_116SampleComparatorEEclIPiS8_EEbT_T0_.exit
  %27 = load i32, ptr %.01926, align 4, !tbaa !85
  store i32 %27, ptr %.028, align 4, !tbaa !85
  %28 = getelementptr inbounds nuw i8, ptr %.01926, i64 4
  br label %31

_ZN9__gnu_cxx5__ops15_Iter_comp_iterIN11OpenImageIO6v3_1_012_GLOBAL__N_116SampleComparatorEEclIPiS8_EEbT_T0_.exit.thread24: ; preds = %22, %_ZN9__gnu_cxx5__ops15_Iter_comp_iterIN11OpenImageIO6v3_1_012_GLOBAL__N_116SampleComparatorEEclIPiS8_EEbT_T0_.exit
  %29 = load i32, ptr %.01827, align 4, !tbaa !85
  store i32 %29, ptr %.028, align 4, !tbaa !85
  %30 = getelementptr inbounds nuw i8, ptr %.01827, i64 4
  br label %31

31:                                               ; preds = %_ZN9__gnu_cxx5__ops15_Iter_comp_iterIN11OpenImageIO6v3_1_012_GLOBAL__N_116SampleComparatorEEclIPiS8_EEbT_T0_.exit.thread24, %_ZN9__gnu_cxx5__ops15_Iter_comp_iterIN11OpenImageIO6v3_1_012_GLOBAL__N_116SampleComparatorEEclIPiS8_EEbT_T0_.exit.thread
  %.120 = phi ptr [ %28, %_ZN9__gnu_cxx5__ops15_Iter_comp_iterIN11OpenImageIO6v3_1_012_GLOBAL__N_116SampleComparatorEEclIPiS8_EEbT_T0_.exit.thread ], [ %.01926, %_ZN9__gnu_cxx5__ops15_Iter_comp_iterIN11OpenImageIO6v3_1_012_GLOBAL__N_116SampleComparatorEEclIPiS8_EEbT_T0_.exit.thread24 ]
  %.1 = phi ptr [ %.01827, %_ZN9__gnu_cxx5__ops15_Iter_comp_iterIN11OpenImageIO6v3_1_012_GLOBAL__N_116SampleComparatorEEclIPiS8_EEbT_T0_.exit.thread ], [ %30, %_ZN9__gnu_cxx5__ops15_Iter_comp_iterIN11OpenImageIO6v3_1_012_GLOBAL__N_116SampleComparatorEEclIPiS8_EEbT_T0_.exit.thread24 ]
  %32 = getelementptr inbounds nuw i8, ptr %.028, i64 4
  %33 = icmp ne ptr %.1, %1
  %34 = icmp ne ptr %.120, %3
  %35 = select i1 %33, i1 %34, i1 false
  br i1 %35, label %18, label %._crit_edge, !llvm.loop !206

._crit_edge:                                      ; preds = %31, %6
  %.019.lcssa = phi ptr [ %2, %6 ], [ %.120, %31 ]
  %.018.lcssa = phi ptr [ %0, %6 ], [ %.1, %31 ]
  %.0.lcssa = phi ptr [ %4, %6 ], [ %32, %31 ]
  %36 = ptrtoint ptr %1 to i64
  %37 = ptrtoint ptr %.018.lcssa to i64
  %38 = sub i64 %36, %37
  %.not.i.i.i.i.i = icmp eq ptr %1, %.018.lcssa
  br i1 %.not.i.i.i.i.i, label %_ZSt4moveIPiS0_ET0_T_S2_S1_.exit, label %39

39:                                               ; preds = %._crit_edge
  tail call void @llvm.memmove.p0.p0.i64(ptr align 4 %.0.lcssa, ptr align 4 %.018.lcssa, i64 %38, i1 false)
  br label %_ZSt4moveIPiS0_ET0_T_S2_S1_.exit

_ZSt4moveIPiS0_ET0_T_S2_S1_.exit:                 ; preds = %._crit_edge, %39
  %.not.i.i.i.i.i21 = icmp eq ptr %3, %.019.lcssa
  br i1 %.not.i.i.i.i.i21, label %_ZSt4moveIPiS0_ET0_T_S2_S1_.exit22, label %40

40:                                               ; preds = %_ZSt4moveIPiS0_ET0_T_S2_S1_.exit
  %41 = ptrtoint ptr %3 to i64
  %42 = ptrtoint ptr %.019.lcssa to i64
  %43 = sub i64 %41, %42
  %44 = getelementptr inbounds i8, ptr %.0.lcssa, i64 %38
  tail call void @llvm.memmove.p0.p0.i64(ptr align 4 %44, ptr align 4 %.019.lcssa, i64 %43, i1 false)
  br label %_ZSt4moveIPiS0_ET0_T_S2_S1_.exit22

_ZSt4moveIPiS0_ET0_T_S2_S1_.exit22:               ; preds = %_ZSt4moveIPiS0_ET0_T_S2_S1_.exit, %40
  ret void
}